target datalayout = "e-m:e-p270:32:32-p271:32:32-p272:64:64-i64:64-i128:128-f80:128-n8:16:32:64-S128"
target triple = "x86_64-pc-linux-gnu"

%struct._packet_info = type { ptr, ptr, i32, i32, %struct.nstime_t, %struct.nstime_t, %struct.nstime_t, i32, ptr, ptr, ptr, ptr, %struct._address, %struct._address, %struct._address, %struct._address, %struct._address, %struct._address, i32, ptr, i32, %struct.anon, i32, i32, i32, i32, ptr, i32, ptr, ptr, i16, i16, i32, i32, i16, i32, i32, ptr, ptr, ptr, i8, i8, i16, i16, i16, i32, i16, i16, ptr, ptr, ptr, ptr, ptr, i32 }
%struct.nstime_t = type { i64, i32 }
%struct._address = type { i32, i32, ptr, ptr }
%struct.anon = type { i8, [3 x i8] }

@hf_zbee_zdp_ext_addr = external global i32, align 4
@hf_zbee_zdp_nwk_addr = external global i32, align 4
@.str.8 = private unnamed_addr constant [15 x i8] c", Ext Addr: %s\00", align 1
@hf_zbee_zdp_disc_node_size = external global i32, align 4
@hf_zbee_zdp_disc_power_size = external global i32, align 4
@hf_zbee_zdp_disc_ep_count = external global i32, align 4
@hf_zbee_zdp_disc_simple_count = external global i32, align 4
@ett_zbee_zdp_simple_sizes = external global i32, align 4
@.str.15 = private unnamed_addr constant [24 x i8] c"Simple Descriptor Sizes\00", align 1
@hf_zbee_zdp_disc_simple_size = external global i32, align 4

; Function Attrs: nounwind uwtable
define hidden void @dissect_zbee_zdp_req_store_discovery(ptr noundef %0, ptr noundef %1, ptr noundef %2) #0 {
  %4 = alloca ptr, align 8
  %5 = alloca ptr, align 8
  %6 = alloca ptr, align 8
  %7 = alloca ptr, align 8
  %8 = alloca i32, align 4
  %9 = alloca i32, align 4
  %10 = alloca i64, align 8
  %11 = alloca i32, align 4
  store ptr %0, ptr %4, align 8
  store ptr %1, ptr %5, align 8
  store ptr %2, ptr %6, align 8
  store i32 0, ptr %8, align 4
  %12 = load ptr, ptr %6, align 8
  %13 = load i32, ptr @hf_zbee_zdp_nwk_addr, align 4
  %14 = load ptr, ptr %4, align 8
  %15 = load i32, ptr %8, align 4
  %16 = call ptr @proto_tree_add_item(ptr noundef %12, i32 noundef %13, ptr noundef %14, i32 noundef %15, i32 noundef 2, i32 noundef -2147483648)
  %17 = load i32, ptr %8, align 4
  %18 = add i32 %17, 2
  store i32 %18, ptr %8, align 4
  %19 = load ptr, ptr %6, align 8
  %20 = load i32, ptr @hf_zbee_zdp_ext_addr, align 4
  %21 = load ptr, ptr %4, align 8
  %22 = call i64 @zbee_parse_eui64(ptr noundef %19, i32 noundef %20, ptr noundef %21, ptr noundef %8, i32 noundef 8, ptr noundef null)
  store i64 %22, ptr %10, align 8
  %23 = load ptr, ptr %6, align 8
  %24 = load i32, ptr @hf_zbee_zdp_disc_node_size, align 4
  %25 = load ptr, ptr %4, align 8
  %26 = load i32, ptr %8, align 4
  %27 = call ptr @proto_tree_add_item(ptr noundef %23, i32 noundef %24, ptr noundef %25, i32 noundef %26, i32 noundef 1, i32 noundef -2147483648)
  %28 = load i32, ptr %8, align 4
  %29 = add i32 %28, 1
  store i32 %29, ptr %8, align 4
  %30 = load ptr, ptr %6, align 8
  %31 = load i32, ptr @hf_zbee_zdp_disc_power_size, align 4
  %32 = load ptr, ptr %4, align 8
  %33 = load i32, ptr %8, align 4
  %34 = call ptr @proto_tree_add_item(ptr noundef %30, i32 noundef %31, ptr noundef %32, i32 noundef %33, i32 noundef 1, i32 noundef -2147483648)
  %35 = load i32, ptr %8, align 4
  %36 = add i32 %35, 1
  store i32 %36, ptr %8, align 4
  %37 = load ptr, ptr %6, align 8
  %38 = load i32, ptr @hf_zbee_zdp_disc_ep_count, align 4
  %39 = load ptr, ptr %4, align 8
  %40 = load i32, ptr %8, align 4
  %41 = call ptr @proto_tree_add_item(ptr noundef %37, i32 noundef %38, ptr noundef %39, i32 noundef %40, i32 noundef 1, i32 noundef -2147483648)
  %42 = load i32, ptr %8, align 4
  %43 = add i32 %42, 1
  store i32 %43, ptr %8, align 4
  %44 = load ptr, ptr %6, align 8
  %45 = load i32, ptr @hf_zbee_zdp_disc_simple_count, align 4
  %46 = load ptr, ptr %4, align 8
  %47 = load i32, ptr %8, align 4
  %48 = call ptr @proto_tree_add_item_ret_uint(ptr noundef %44, i32 noundef %45, ptr noundef %46, i32 noundef %47, i32 noundef 1, i32 noundef -2147483648, ptr noundef %11)
  %49 = load i32, ptr %8, align 4
  %50 = add i32 %49, 1
  store i32 %50, ptr %8, align 4
  %51 = load ptr, ptr %6, align 8
  %52 = load ptr, ptr %4, align 8
  %53 = load i32, ptr %8, align 4
  %54 = load i32, ptr %11, align 4
  %55 = load i32, ptr @ett_zbee_zdp_simple_sizes, align 4
  %56 = call ptr @proto_tree_add_subtree(ptr noundef %51, ptr noundef %52, i32 noundef %53, i32 noundef %54, i32 noundef %55, ptr noundef null, ptr noundef @.str.15)
  store ptr %56, ptr %7, align 8
  store i32 0, ptr %9, align 4
  br label %57

57:                                               ; preds = %69, %3
  %58 = load i32, ptr %9, align 4
  %59 = load i32, ptr %11, align 4
  %60 = icmp ult i32 %58, %59
  br i1 %60, label %61, label %72

61:                                               ; preds = %57
  %62 = load ptr, ptr %7, align 8
  %63 = load i32, ptr @hf_zbee_zdp_disc_simple_size, align 4
  %64 = load ptr, ptr %4, align 8
  %65 = load i32, ptr %8, align 4
  %66 = call ptr @proto_tree_add_item(ptr noundef %62, i32 noundef %63, ptr noundef %64, i32 noundef %65, i32 noundef 1, i32 noundef -2147483648)
  %67 = load i32, ptr %8, align 4
  %68 = add i32 %67, 1
  store i32 %68, ptr %8, align 4
  br label %69

69:                                               ; preds = %61
  %70 = load i32, ptr %9, align 4
  %71 = add i32 %70, 1
  store i32 %71, ptr %9, align 4
  br label %57, !llvm.loop !9

72:                                               ; preds = %57
  %73 = load ptr, ptr %6, align 8
  %74 = load ptr, ptr %5, align 8
  %75 = load ptr, ptr %5, align 8
  %76 = getelementptr inbounds %struct._packet_info, ptr %75, i32 0, i32 50
  %77 = load ptr, ptr %76, align 8
  %78 = load i64, ptr %10, align 8
  %79 = call ptr @eui64_to_display(ptr noundef %77, i64 noundef %78)
  call void (ptr, ptr, ptr, ...) @zbee_append_info(ptr noundef %73, ptr noundef %74, ptr noundef @.str.8, ptr noundef %79)
  %80 = load ptr, ptr %4, align 8
  %81 = load i32, ptr %8, align 4
  %82 = load ptr, ptr %5, align 8
  %83 = load ptr, ptr %6, align 8
  call void @zdp_dump_excess(ptr noundef %80, i32 noundef %81, ptr noundef %82, ptr noundef %83)
  ret void
}