; Function Attrs: nounwind uwtable
define hidden void @dissect_zbee_zdp_req_store_discovery(ptr noundef %0, ptr noundef %1, ptr noundef %2) local_unnamed_addr #0 {
  %4 = alloca i32, align 4
  %5 = alloca i32, align 4
  %6 = load i32, ptr @hf_zbee_zdp_nwk_addr, align 4
  %7 = tail call ptr @proto_tree_add_item(ptr noundef %2, i32 noundef %6, ptr noundef %0, i32 noundef 0, i32 noundef 2, i32 noundef -2147483648) #2
  store i32 2, ptr %4, align 4
  %8 = load i32, ptr @hf_zbee_zdp_ext_addr, align 4
  %9 = call i64 @zbee_parse_eui64(ptr noundef %2, i32 noundef %8, ptr noundef %0, ptr noundef nonnull %4, i32 noundef 8, ptr noundef null) #2
  %10 = load i32, ptr @hf_zbee_zdp_disc_node_size, align 4
  %11 = load i32, ptr %4, align 4
  %12 = call ptr @proto_tree_add_item(ptr noundef %2, i32 noundef %10, ptr noundef %0, i32 noundef %11, i32 noundef 1, i32 noundef -2147483648) #2
  %13 = load i32, ptr %4, align 4
  %14 = add i32 %13, 1
  store i32 %14, ptr %4, align 4
  %15 = load i32, ptr @hf_zbee_zdp_disc_power_size, align 4
  %16 = call ptr @proto_tree_add_item(ptr noundef %2, i32 noundef %15, ptr noundef %0, i32 noundef %14, i32 noundef 1, i32 noundef -2147483648) #2
  %17 = load i32, ptr %4, align 4
  %18 = add i32 %17, 1
  store i32 %18, ptr %4, align 4
  %19 = load i32, ptr @hf_zbee_zdp_disc_ep_count, align 4
  %20 = call ptr @proto_tree_add_item(ptr noundef %2, i32 noundef %19, ptr noundef %0, i32 noundef %18, i32 noundef 1, i32 noundef -2147483648) #2
  %21 = load i32, ptr %4, align 4
  %22 = add i32 %21, 1
  store i32 %22, ptr %4, align 4
  %23 = load i32, ptr @hf_zbee_zdp_disc_simple_count, align 4
  %24 = call ptr @proto_tree_add_item_ret_uint(ptr noundef %2, i32 noundef %23, ptr noundef %0, i32 noundef %22, i32 noundef 1, i32 noundef -2147483648, ptr noundef nonnull %5) #2
  %25 = load i32, ptr %4, align 4
  %26 = add i32 %25, 1
  store i32 %26, ptr %4, align 4
  %27 = load i32, ptr %5, align 4
  %28 = load i32, ptr @ett_zbee_zdp_simple_sizes, align 4
  %29 = call ptr @proto_tree_add_subtree(ptr noundef %2, ptr noundef %0, i32 noundef %26, i32 noundef %27, i32 noundef %28, ptr noundef null, ptr noundef nonnull @.str.15) #2
  %30 = load i32, ptr %5, align 4
  %.not = icmp eq i32 %30, 0
  br i1 %.not, label %._crit_edge, label %.lr.ph.preheader

.lr.ph.preheader:                                 ; preds = %3
  %.pre = load i32, ptr %4, align 4
  br label %.lr.ph

.lr.ph:                                           ; preds = %.lr.ph.preheader, %.lr.ph
  %31 = phi i32 [ %35, %.lr.ph ], [ %.pre, %.lr.ph.preheader ]
  %.024 = phi i32 [ %36, %.lr.ph ], [ 0, %.lr.ph.preheader ]
  %32 = load i32, ptr @hf_zbee_zdp_disc_simple_size, align 4
  %33 = call ptr @proto_tree_add_item(ptr noundef %29, i32 noundef %32, ptr noundef %0, i32 noundef %31, i32 noundef 1, i32 noundef -2147483648) #2
  %34 = load i32, ptr %4, align 4
  %35 = add i32 %34, 1
  store i32 %35, ptr %4, align 4
  %36 = add nuw i32 %.024, 1
  %37 = load i32, ptr %5, align 4
  %38 = icmp ult i32 %36, %37
  br i1 %38, label %.lr.ph, label %._crit_edge, !llvm.loop !9

._crit_edge:                                      ; preds = %.lr.ph, %3
  %39 = getelementptr inbounds nuw i8, ptr %1, i64 408
  %40 = load ptr, ptr %39, align 8
  %41 = call ptr @eui64_to_display(ptr noundef %40, i64 noundef %9) #2
  call void (ptr, ptr, ptr, ...) @zbee_append_info(ptr noundef %2, ptr noundef %1, ptr noundef nonnull @.str.8, ptr noundef %41) #2
  %42 = load i32, ptr %4, align 4
  call void @zdp_dump_excess(ptr noundef %0, i32 noundef %42, ptr noundef %1, ptr noundef %2) #2
  ret void
}